target datalayout = "e-m:e-p270:32:32-p271:32:32-p272:64:64-i64:64-i128:128-f80:128-n8:16:32:64-S128"
target triple = "x86_64-pc-linux-gnu"

%union.pthread_cond_t = type { %struct.__pthread_cond_s }
%struct.__pthread_cond_s = type { %union.__atomic_wide_counter, %union.__atomic_wide_counter, [2 x i32], [2 x i32], i32, i32, [2 x i32] }
%union.__atomic_wide_counter = type { i64 }
%struct.CPOOL = type { i32, i32, ptr, ptr }
%struct.CP_ENTRY = type { ptr, ptr, i32, i64, i8, i8, i8 }

@cp = dso_local global ptr null, align 8
@mon_cond = internal global %union.pthread_cond_t zeroinitializer, align 8

; Function Attrs: nounwind uwtable
define dso_local ptr @cpool_get_rand(ptr noundef %0) #0 {
  %2 = alloca ptr, align 8
  %3 = alloca ptr, align 8
  %4 = alloca i32, align 4
  %5 = alloca i32, align 4
  %6 = alloca ptr, align 8
  %7 = alloca i32, align 4
  store ptr %0, ptr %3, align 8, !tbaa !56
  call void @llvm.lifetime.start.p0(i64 4, ptr %4) #9
  call void @llvm.lifetime.start.p0(i64 4, ptr %5) #9
  call void @llvm.lifetime.start.p0(i64 8, ptr %6) #9
  %8 = load ptr, ptr @cp, align 8, !tbaa !11
  %9 = getelementptr inbounds nuw %struct.CPOOL, ptr %8, i32 0, i32 1
  %10 = load i32, ptr %9, align 4, !tbaa !58
  %11 = icmp ne i32 %10, 0
  br i1 %11, label %12, label %78

12:                                               ; preds = %1
  %13 = call i32 @rand() #9
  %14 = load ptr, ptr @cp, align 8, !tbaa !11
  %15 = getelementptr inbounds nuw %struct.CPOOL, ptr %14, i32 0, i32 0
  %16 = load i32, ptr %15, align 8, !tbaa !25
  %17 = urem i32 %13, %16
  store i32 %17, ptr %4, align 4, !tbaa !9
  store i32 0, ptr %5, align 4, !tbaa !9
  br label %18

18:                                               ; preds = %74, %12
  %19 = load i32, ptr %5, align 4, !tbaa !9
  %20 = load ptr, ptr @cp, align 8, !tbaa !11
  %21 = getelementptr inbounds nuw %struct.CPOOL, ptr %20, i32 0, i32 0
  %22 = load i32, ptr %21, align 8, !tbaa !25
  %23 = icmp ult i32 %19, %22
  br i1 %23, label %24, label %77

24:                                               ; preds = %18
  %25 = load ptr, ptr @cp, align 8, !tbaa !11
  %26 = getelementptr inbounds nuw %struct.CPOOL, ptr %25, i32 0, i32 3
  %27 = load ptr, ptr %26, align 8, !tbaa !26
  %28 = load i32, ptr %5, align 4, !tbaa !9
  %29 = load i32, ptr %4, align 4, !tbaa !9
  %30 = add i32 %28, %29
  %31 = load ptr, ptr @cp, align 8, !tbaa !11
  %32 = getelementptr inbounds nuw %struct.CPOOL, ptr %31, i32 0, i32 0
  %33 = load i32, ptr %32, align 8, !tbaa !25
  %34 = urem i32 %30, %33
  %35 = zext i32 %34 to i64
  %36 = getelementptr inbounds nuw %struct.CP_ENTRY, ptr %27, i64 %35
  store ptr %36, ptr %6, align 8, !tbaa !27
  %37 = load ptr, ptr %6, align 8, !tbaa !27
  %38 = getelementptr inbounds nuw %struct.CP_ENTRY, ptr %37, i32 0, i32 5
  %39 = load i8, ptr %38, align 1, !tbaa !37
  %40 = icmp ne i8 %39, 0
  br i1 %40, label %41, label %42

41:                                               ; preds = %24
  br label %74

42:                                               ; preds = %24
  %43 = load ptr, ptr %6, align 8, !tbaa !27
  %44 = getelementptr inbounds nuw %struct.CP_ENTRY, ptr %43, i32 0, i32 6
  %45 = load i8, ptr %44, align 2, !tbaa !38
  %46 = zext i8 %45 to i32
  %47 = icmp ne i32 %46, 0
  br i1 %47, label %48, label %64

48:                                               ; preds = %42
  %49 = load ptr, ptr @cp, align 8, !tbaa !11
  %50 = getelementptr inbounds nuw %struct.CPOOL, ptr %49, i32 0, i32 2
  %51 = load ptr, ptr %50, align 8, !tbaa !13
  %52 = icmp ne ptr %51, null
  br i1 %52, label %53, label %64

53:                                               ; preds = %48
  %54 = load ptr, ptr @cp, align 8, !tbaa !11
  %55 = getelementptr inbounds nuw %struct.CPOOL, ptr %54, i32 0, i32 2
  %56 = load ptr, ptr %55, align 8, !tbaa !13
  %57 = getelementptr inbounds nuw %struct.CP_ENTRY, ptr %56, i32 0, i32 5
  %58 = load i8, ptr %57, align 1, !tbaa !37
  %59 = icmp ne i8 %58, 0
  br i1 %59, label %64, label %60

60:                                               ; preds = %53
  %61 = load ptr, ptr @cp, align 8, !tbaa !11
  %62 = getelementptr inbounds nuw %struct.CPOOL, ptr %61, i32 0, i32 2
  %63 = load ptr, ptr %62, align 8, !tbaa !13
  store ptr %63, ptr %6, align 8, !tbaa !27
  br label %64

64:                                               ; preds = %60, %53, %48, %42
  %65 = load ptr, ptr %6, align 8, !tbaa !27
  %66 = call i32 @nc_connect_entry(ptr noundef %65)
  %67 = load ptr, ptr %3, align 8, !tbaa !56
  store i32 %66, ptr %67, align 4, !tbaa !9
  %68 = icmp eq i32 %66, -1
  br i1 %68, label %69, label %72

69:                                               ; preds = %64
  %70 = load ptr, ptr %6, align 8, !tbaa !27
  %71 = getelementptr inbounds nuw %struct.CP_ENTRY, ptr %70, i32 0, i32 5
  store i8 1, ptr %71, align 1, !tbaa !37
  br label %74

72:                                               ; preds = %64
  %73 = load ptr, ptr %6, align 8, !tbaa !27
  store ptr %73, ptr %2, align 8
  store i32 1, ptr %7, align 4
  br label %80

74:                                               ; preds = %69, %41
  %75 = load i32, ptr %5, align 4, !tbaa !9
  %76 = add i32 %75, 1
  store i32 %76, ptr %5, align 4, !tbaa !9
  br label %18

77:                                               ; preds = %18
  br label %78

78:                                               ; preds = %77, %1
  %79 = call i32 @pthread_cond_signal(ptr noundef @mon_cond) #9
  store ptr null, ptr %2, align 8
  store i32 1, ptr %7, align 4
  br label %80

80:                                               ; preds = %78, %72
  call void @llvm.lifetime.end.p0(i64 8, ptr %6) #9
  call void @llvm.lifetime.end.p0(i64 4, ptr %5) #9
  call void @llvm.lifetime.end.p0(i64 4, ptr %4) #9
  %81 = load ptr, ptr %2, align 8
  ret ptr %81
}