; Function Attrs: nounwind uwtable
define dso_local noundef ptr @cpool_get_rand(ptr noundef writeonly captures(none) %0) local_unnamed_addr #0 {
  %2 = load ptr, ptr @cp, align 8, !tbaa !4
  %3 = getelementptr inbounds nuw i8, ptr %2, i64 4
  %4 = load i32, ptr %3, align 4, !tbaa !48
  %.not = icmp eq i32 %4, 0
  br i1 %.not, label %.loopexit, label %.lr.ph.preheader

.lr.ph.preheader:                                 ; preds = %1
  %5 = tail call i32 @rand() #13
  %6 = load ptr, ptr @cp, align 8, !tbaa !4
  %7 = load i32, ptr %6, align 8, !tbaa !20
  %8 = urem i32 %5, %7
  br label %.lr.ph

.lr.ph:                                           ; preds = %.lr.ph.preheader, %33
  %9 = phi i32 [ %34, %33 ], [ %7, %.lr.ph.preheader ]
  %10 = phi ptr [ %35, %33 ], [ %6, %.lr.ph.preheader ]
  %.01019 = phi i32 [ %36, %33 ], [ 0, %.lr.ph.preheader ]
  %11 = getelementptr inbounds nuw i8, ptr %10, i64 16
  %12 = load ptr, ptr %11, align 8, !tbaa !17
  %13 = add i32 %.01019, %8
  %14 = urem i32 %13, %9
  %15 = zext i32 %14 to i64
  %16 = getelementptr inbounds nuw %struct.CP_ENTRY, ptr %12, i64 %15
  %17 = getelementptr inbounds nuw i8, ptr %16, i64 33
  %18 = load i8, ptr %17, align 1, !tbaa !30
  %.not14 = icmp eq i8 %18, 0
  br i1 %.not14, label %19, label %33

19:                                               ; preds = %.lr.ph
  %20 = getelementptr inbounds nuw i8, ptr %16, i64 34
  %21 = load i8, ptr %20, align 2, !tbaa !31
  %.not15 = icmp eq i8 %21, 0
  br i1 %.not15, label %28, label %22

22:                                               ; preds = %19
  %23 = getelementptr inbounds nuw i8, ptr %10, i64 8
  %24 = load ptr, ptr %23, align 8, !tbaa !21
  %.not16 = icmp eq ptr %24, null
  br i1 %.not16, label %28, label %25

25:                                               ; preds = %22
  %26 = getelementptr inbounds nuw i8, ptr %24, i64 33
  %27 = load i8, ptr %26, align 1, !tbaa !30
  %.not17 = icmp eq i8 %27, 0
  %spec.select = select i1 %.not17, ptr %24, ptr %16
  br label %28

28:                                               ; preds = %25, %22, %19
  %.0 = phi ptr [ %16, %22 ], [ %16, %19 ], [ %spec.select, %25 ]
  %29 = tail call i32 @nc_connect_entry(ptr noundef nonnull %.0) #13
  store i32 %29, ptr %0, align 4, !tbaa !52
  %30 = icmp eq i32 %29, -1
  br i1 %30, label %31, label %.loopexit18

31:                                               ; preds = %28
  %32 = getelementptr inbounds nuw i8, ptr %.0, i64 33
  store i8 1, ptr %32, align 1, !tbaa !30
  %.pre = load ptr, ptr @cp, align 8, !tbaa !4
  %.pre20 = load i32, ptr %.pre, align 8, !tbaa !20
  br label %33

33:                                               ; preds = %.lr.ph, %31
  %34 = phi i32 [ %9, %.lr.ph ], [ %.pre20, %31 ]
  %35 = phi ptr [ %10, %.lr.ph ], [ %.pre, %31 ]
  %36 = add nuw i32 %.01019, 1
  %37 = icmp ult i32 %36, %34
  br i1 %37, label %.lr.ph, label %.loopexit

.loopexit:                                        ; preds = %33, %1
  %38 = tail call i32 @pthread_cond_signal(ptr noundef nonnull @mon_cond) #13
  br label %.loopexit18

.loopexit18:                                      ; preds = %28, %.loopexit
  %.011 = phi ptr [ null, %.loopexit ], [ %.0, %28 ]
  ret ptr %.011
}